; Function Attrs: nounwind uwtable
define ptr @Cudd_zddSubset1(ptr noundef initializes((448, 452)) %0, ptr noundef %1, i32 noundef %2) local_unnamed_addr #0 {
  %4 = getelementptr inbounds nuw i8, ptr %0, i64 448
  %5 = getelementptr inbounds nuw i8, ptr %0, i64 40
  %6 = getelementptr inbounds nuw i8, ptr %0, i64 48
  br label %7

7:                                                ; preds = %cuddZddSubset1.exit, %3
  store i32 0, ptr %4, align 8, !tbaa !3
  %8 = load ptr, ptr %5, align 8, !tbaa !37
  %9 = load ptr, ptr %6, align 8, !tbaa !26
  %10 = tail call ptr @cuddUniqueInterZdd(ptr noundef %0, i32 noundef %2, ptr noundef %8, ptr noundef %9) #3
  %11 = icmp eq ptr %10, null
  br i1 %11, label %cuddZddSubset1.exit, label %12

12:                                               ; preds = %7
  %13 = ptrtoint ptr %10 to i64
  %14 = and i64 %13, -2
  %15 = inttoptr i64 %14 to ptr
  %16 = getelementptr inbounds nuw i8, ptr %15, i64 4
  %17 = load i32, ptr %16, align 4, !tbaa !33
  %18 = add i32 %17, 1
  store i32 %18, ptr %16, align 4, !tbaa !33
  %19 = tail call ptr @zdd_subset1_aux(ptr noundef nonnull %0, ptr noundef %1, ptr noundef nonnull %10)
  %20 = icmp eq ptr %19, null
  br i1 %20, label %21, label %22

21:                                               ; preds = %12
  tail call void @Cudd_RecursiveDerefZdd(ptr noundef nonnull %0, ptr noundef nonnull %10) #3
  br label %cuddZddSubset1.exit

22:                                               ; preds = %12
  %23 = ptrtoint ptr %19 to i64
  %24 = and i64 %23, -2
  %25 = inttoptr i64 %24 to ptr
  %26 = getelementptr inbounds nuw i8, ptr %25, i64 4
  %27 = load i32, ptr %26, align 4, !tbaa !33
  %28 = add i32 %27, 1
  store i32 %28, ptr %26, align 4, !tbaa !33
  tail call void @Cudd_RecursiveDerefZdd(ptr noundef nonnull %0, ptr noundef nonnull %10) #3
  %29 = load i32, ptr %26, align 4, !tbaa !33
  %30 = add i32 %29, -1
  store i32 %30, ptr %26, align 4, !tbaa !33
  br label %cuddZddSubset1.exit

cuddZddSubset1.exit:                              ; preds = %7, %21, %22
  %.0.i = phi ptr [ null, %21 ], [ %19, %22 ], [ null, %7 ]
  %31 = load i32, ptr %4, align 8, !tbaa !3
  %32 = icmp eq i32 %31, 1
  br i1 %32, label %7, label %33, !llvm.loop !38

33:                                               ; preds = %cuddZddSubset1.exit
  ret ptr %.0.i
}